target datalayout = "e-m:e-p270:32:32-p271:32:32-p272:64:64-i64:64-i128:128-f80:128-n8:16:32:64-S128"
target triple = "x86_64-pc-linux-gnu"

%struct.jit_State = type { %struct.GCtrace, ptr, ptr, ptr, ptr, ptr, ptr, i32, i32, i32, i8, i8, %struct.IRType1, i8, %struct.FoldState, ptr, i32, i32, i32, i32, i32, i32, i32, [1 x i32], [5 x %union.TValue], [3 x %union.TValue], ptr, i32, i32, i32, i32, ptr, ptr, i32, i32, i8, ptr, i32, i32, i16, [101 x i16], [258 x i32], [15 x i32], [16 x ptr], [64 x %struct.HotPenalty], i32, [16 x %struct.BPropEntry], i32, %struct.ScEvEntry, ptr, i32, i32, i32, ptr, i32, i32, ptr, ptr, ptr, i64, i64, %union.TValue, ptr, i32, i32 }
%struct.GCtrace = type { %struct.GCRef, i8, i8, i16, i32, i32, %struct.GCRef, ptr, i32, i32, ptr, ptr, %struct.GCRef, %struct.MRef, i32, i32, ptr, i32, i16, i16, i16, i16, i16, i16, i16, i8, i8, i8, i8 }
%struct.GCRef = type { i64 }
%struct.MRef = type { i64 }
%struct.IRType1 = type { i8 }
%struct.FoldState = type { %union.IRIns, [2 x %union.IRIns], [2 x %union.IRIns] }
%union.IRIns = type { %struct.GCRef }
%struct.HotPenalty = type { %struct.MRef, i16, i16 }
%struct.BPropEntry = type { i16, i16, i32 }
%struct.ScEvEntry = type { %struct.MRef, i16, i16, i16, i16, %struct.IRType1, i8 }
%union.TValue = type { i64 }
%struct.anon.0 = type { i32, %struct.IRType1, i8, i8, i8 }
%struct.anon = type { i16, i16, i16, i16 }

; Function Attrs: nounwind uwtable
define internal i32 @fold_cse_conv(ptr noundef %0) #0 {
  %2 = alloca i32, align 4
  %3 = alloca ptr, align 8
  %4 = alloca i32, align 4
  %5 = alloca i32, align 4
  %6 = alloca i8, align 1
  %7 = alloca i32, align 4
  %8 = alloca ptr, align 8
  %9 = alloca i32, align 4
  store ptr %0, ptr %3, align 8, !tbaa !4
  %10 = load ptr, ptr %3, align 8, !tbaa !4
  %11 = getelementptr inbounds nuw %struct.jit_State, ptr %10, i32 0, i32 7
  %12 = load i32, ptr %11, align 8, !tbaa !9
  %13 = and i32 %12, 131072
  %14 = icmp ne i32 %13, 0
  %15 = xor i1 %14, true
  %16 = xor i1 %15, true
  %17 = zext i1 %16 to i32
  %18 = sext i32 %17 to i64
  %19 = call i64 @llvm.expect.i64(i64 %18, i64 1)
  %20 = icmp ne i64 %19, 0
  br i1 %20, label %21, label %99

21:                                               ; preds = %1
  call void @llvm.lifetime.start.p0(i64 4, ptr %4) #8
  %22 = load ptr, ptr %3, align 8, !tbaa !4
  %23 = getelementptr inbounds nuw %struct.jit_State, ptr %22, i32 0, i32 14
  %24 = getelementptr inbounds nuw %struct.FoldState, ptr %23, i32 0, i32 0
  %25 = getelementptr inbounds nuw %struct.anon, ptr %24, i32 0, i32 0
  %26 = load i16, ptr %25, align 8, !tbaa !29
  %27 = zext i16 %26 to i32
  store i32 %27, ptr %4, align 4, !tbaa !30
  call void @llvm.lifetime.start.p0(i64 4, ptr %5) #8
  %28 = load ptr, ptr %3, align 8, !tbaa !4
  %29 = getelementptr inbounds nuw %struct.jit_State, ptr %28, i32 0, i32 14
  %30 = getelementptr inbounds nuw %struct.FoldState, ptr %29, i32 0, i32 0
  %31 = getelementptr inbounds nuw %struct.anon, ptr %30, i32 0, i32 1
  %32 = load i16, ptr %31, align 2, !tbaa !29
  %33 = zext i16 %32 to i32
  %34 = and i32 %33, 4095
  store i32 %34, ptr %5, align 4, !tbaa !30
  call void @llvm.lifetime.start.p0(i64 1, ptr %6) #8
  %35 = load ptr, ptr %3, align 8, !tbaa !4
  %36 = getelementptr inbounds nuw %struct.jit_State, ptr %35, i32 0, i32 14
  %37 = getelementptr inbounds nuw %struct.FoldState, ptr %36, i32 0, i32 0
  %38 = getelementptr inbounds nuw %struct.anon.0, ptr %37, i32 0, i32 1
  %39 = getelementptr inbounds nuw %struct.IRType1, ptr %38, i32 0, i32 0
  %40 = load i8, ptr %39, align 4, !tbaa !29
  %41 = zext i8 %40 to i32
  %42 = and i32 %41, 128
  %43 = trunc i32 %42 to i8
  store i8 %43, ptr %6, align 1, !tbaa !29
  call void @llvm.lifetime.start.p0(i64 4, ptr %7) #8
  %44 = load ptr, ptr %3, align 8, !tbaa !4
  %45 = getelementptr inbounds nuw %struct.jit_State, ptr %44, i32 0, i32 40
  %46 = getelementptr inbounds [101 x i16], ptr %45, i64 0, i64 91
  %47 = load i16, ptr %46, align 2, !tbaa !35
  %48 = zext i16 %47 to i32
  store i32 %48, ptr %7, align 4, !tbaa !30
  br label %49

49:                                               ; preds = %94, %21
  %50 = load i32, ptr %7, align 4, !tbaa !30
  %51 = load i32, ptr %4, align 4, !tbaa !30
  %52 = icmp ugt i32 %50, %51
  br i1 %52, label %53, label %95

53:                                               ; preds = %49
  call void @llvm.lifetime.start.p0(i64 8, ptr %8) #8
  %54 = load ptr, ptr %3, align 8, !tbaa !4
  %55 = getelementptr inbounds nuw %struct.jit_State, ptr %54, i32 0, i32 0
  %56 = getelementptr inbounds nuw %struct.GCtrace, ptr %55, i32 0, i32 7
  %57 = load ptr, ptr %56, align 8, !tbaa !32
  %58 = load i32, ptr %7, align 4, !tbaa !30
  %59 = zext i32 %58 to i64
  %60 = getelementptr inbounds nuw %union.IRIns, ptr %57, i64 %59
  store ptr %60, ptr %8, align 8, !tbaa !38
  %61 = load ptr, ptr %8, align 8, !tbaa !38
  %62 = getelementptr inbounds nuw %struct.anon, ptr %61, i32 0, i32 0
  %63 = load i16, ptr %62, align 8, !tbaa !29
  %64 = zext i16 %63 to i32
  %65 = load i32, ptr %4, align 4, !tbaa !30
  %66 = icmp eq i32 %64, %65
  br i1 %66, label %67, label %87

67:                                               ; preds = %53
  %68 = load ptr, ptr %8, align 8, !tbaa !38
  %69 = getelementptr inbounds nuw %struct.anon, ptr %68, i32 0, i32 1
  %70 = load i16, ptr %69, align 2, !tbaa !29
  %71 = zext i16 %70 to i32
  %72 = and i32 %71, 4095
  %73 = load i32, ptr %5, align 4, !tbaa !30
  %74 = icmp eq i32 %72, %73
  br i1 %74, label %75, label %87

75:                                               ; preds = %67
  %76 = load ptr, ptr %8, align 8, !tbaa !38
  %77 = getelementptr inbounds nuw %struct.anon.0, ptr %76, i32 0, i32 1
  %78 = getelementptr inbounds nuw %struct.IRType1, ptr %77, i32 0, i32 0
  %79 = load i8, ptr %78, align 4, !tbaa !29
  %80 = zext i8 %79 to i32
  %81 = and i32 %80, 128
  %82 = load i8, ptr %6, align 1, !tbaa !29
  %83 = zext i8 %82 to i32
  %84 = icmp sge i32 %81, %83
  br i1 %84, label %85, label %87

85:                                               ; preds = %75
  %86 = load i32, ptr %7, align 4, !tbaa !30
  store i32 %86, ptr %2, align 4
  store i32 1, ptr %9, align 4
  br label %92

87:                                               ; preds = %75, %67, %53
  %88 = load ptr, ptr %8, align 8, !tbaa !38
  %89 = getelementptr inbounds nuw %struct.anon, ptr %88, i32 0, i32 3
  %90 = load i16, ptr %89, align 2, !tbaa !29
  %91 = zext i16 %90 to i32
  store i32 %91, ptr %7, align 4, !tbaa !30
  store i32 0, ptr %9, align 4
  br label %92

92:                                               ; preds = %87, %85
  call void @llvm.lifetime.end.p0(i64 8, ptr %8) #8
  %93 = load i32, ptr %9, align 4
  switch i32 %93, label %96 [
    i32 0, label %94
  ]

94:                                               ; preds = %92
  br label %49, !llvm.loop !83

95:                                               ; preds = %49
  store i32 0, ptr %9, align 4
  br label %96

96:                                               ; preds = %95, %92
  call void @llvm.lifetime.end.p0(i64 4, ptr %7) #8
  call void @llvm.lifetime.end.p0(i64 1, ptr %6) #8
  call void @llvm.lifetime.end.p0(i64 4, ptr %5) #8
  call void @llvm.lifetime.end.p0(i64 4, ptr %4) #8
  %97 = load i32, ptr %9, align 4
  switch i32 %97, label %104 [
    i32 0, label %98
    i32 1, label %102
  ]

98:                                               ; preds = %96
  br label %99

99:                                               ; preds = %98, %1
  %100 = load ptr, ptr %3, align 8, !tbaa !4
  %101 = call i32 @lj_ir_emit(ptr noundef %100)
  store i32 %101, ptr %2, align 4
  br label %102

102:                                              ; preds = %99, %96
  %103 = load i32, ptr %2, align 4
  ret i32 %103

104:                                              ; preds = %96
  unreachable
}