; Function Attrs: nounwind uwtable
define internal i32 @fold_cse_conv(ptr noundef %0) #0 {
  %2 = getelementptr inbounds nuw i8, ptr %0, i64 168
  %3 = load i32, ptr %2, align 8, !tbaa !4
  %4 = and i32 %3, 131072
  %.not = icmp eq i32 %4, 0
  br i1 %.not, label %.thread29, label %5, !prof !33

5:                                                ; preds = %1
  %6 = getelementptr inbounds nuw i8, ptr %0, i64 184
  %7 = load i16, ptr %6, align 8, !tbaa !28
  %8 = getelementptr inbounds nuw i8, ptr %0, i64 186
  %9 = load i16, ptr %8, align 2, !tbaa !28
  %10 = getelementptr inbounds nuw i8, ptr %0, i64 188
  %11 = load i8, ptr %10, align 4, !tbaa !28
  %12 = and i8 %11, -128
  %13 = getelementptr inbounds nuw i8, ptr %0, i64 584
  %.022.in33 = load i16, ptr %13, align 2, !tbaa !28
  %14 = icmp ugt i16 %.022.in33, %7
  br i1 %14, label %.lr.ph, label %.thread29

.lr.ph:                                           ; preds = %5
  %15 = getelementptr inbounds nuw i8, ptr %0, i64 32
  %16 = load ptr, ptr %15, align 8, !tbaa !30
  br label %17

17:                                               ; preds = %.lr.ph, %32
  %.022.in34 = phi i16 [ %.022.in33, %.lr.ph ], [ %.022.in, %32 ]
  %18 = zext i16 %.022.in34 to i64
  %19 = getelementptr inbounds nuw %union.IRIns, ptr %16, i64 %18
  %20 = load i16, ptr %19, align 8, !tbaa !28
  %21 = icmp eq i16 %20, %7
  br i1 %21, label %22, label %32

22:                                               ; preds = %17
  %23 = getelementptr inbounds nuw i8, ptr %19, i64 2
  %24 = load i16, ptr %23, align 2, !tbaa !28
  %25 = xor i16 %24, %9
  %26 = and i16 %25, 4095
  %27 = icmp eq i16 %26, 0
  br i1 %27, label %28, label %32

28:                                               ; preds = %22
  %29 = getelementptr inbounds nuw i8, ptr %19, i64 4
  %30 = load i8, ptr %29, align 4, !tbaa !28
  %31 = and i8 %30, -128
  %.not25 = icmp ult i8 %31, %12
  br i1 %.not25, label %32, label %.loopexit

32:                                               ; preds = %17, %22, %28
  %33 = getelementptr inbounds nuw i8, ptr %19, i64 6
  %.022.in = load i16, ptr %33, align 2, !tbaa !28
  %34 = icmp ugt i16 %.022.in, %7
  br i1 %34, label %17, label %.thread29, !llvm.loop !77

.thread29:                                        ; preds = %32, %5, %1
  %35 = tail call i32 @lj_ir_emit(ptr noundef nonnull %0) #12
  br label %36

.loopexit:                                        ; preds = %28
  %.022.le = zext i16 %.022.in34 to i32
  br label %36

36:                                               ; preds = %.loopexit, %.thread29
  %.3 = phi i32 [ %35, %.thread29 ], [ %.022.le, %.loopexit ]
  ret i32 %.3
}